; Function Attrs: nounwind uwtable
define nonnull ptr @l_Lean_isNoncomputable___boxed(ptr noundef %0, ptr noundef %1) local_unnamed_addr #0 {
  %3 = load ptr, ptr @l_Lean_addNoncomputable___closed__1, align 8, !tbaa !4
  %4 = tail call zeroext i8 @l_Lean_TagDeclarationExtension_isTagged(ptr noundef %3, ptr noundef %0, ptr noundef %1) #3
  %5 = zext i8 %4 to i64
  %6 = shl nuw nsw i64 %5, 1
  %7 = or disjoint i64 %6, 1
  %8 = inttoptr i64 %7 to ptr
  ret ptr %8
}